; Function Attrs: mustprogress uwtable
define dso_local noundef ptr @_Z14luaL_optvectorP9lua_StateiPKf(ptr noundef %0, i32 noundef %1, ptr noundef readnone %2) local_unnamed_addr #2 {
  %4 = tail call noundef i32 @_Z8lua_typeP9lua_Statei(ptr noundef %0, i32 noundef %1)
  %5 = icmp slt i32 %4, 1
  br i1 %5, label %_Z16luaL_checkvectorP9lua_Statei.exit, label %6

6:                                                ; preds = %3
  %7 = tail call noundef ptr @_Z12lua_tovectorP9lua_Statei(ptr noundef %0, i32 noundef %1)
  %.not.i = icmp eq ptr %7, null
  br i1 %.not.i, label %8, label %_Z16luaL_checkvectorP9lua_Statei.exit

8:                                                ; preds = %6
  tail call fastcc void @_ZL9tag_errorP9lua_Stateii(ptr noundef %0, i32 noundef %1, i32 noundef 4) #11
  unreachable

_Z16luaL_checkvectorP9lua_Statei.exit:            ; preds = %6, %3
  %9 = phi ptr [ %2, %3 ], [ %7, %6 ]
  ret ptr %9
}